; Function Attrs: mustprogress nofree norecurse nosync nounwind willreturn memory(argmem: read) uwtable
define internal noundef range(i32 -1, 2) i32 @"_ZZN21ClassUnloadingContext13free_nmethodsEvEN3$_08__invokeEPP7nmethodS3_"(ptr nocapture noundef readonly %0, ptr nocapture noundef readonly %1) #6 align 2 {
  %.val = load ptr, ptr %0, align 8
  %.val2 = load ptr, ptr %1, align 8
  %3 = icmp eq ptr %.val, %.val2
  %4 = icmp ult ptr %.val, %.val2
  %..i = select i1 %4, i32 -1, i32 1
  %.0.i = select i1 %3, i32 0, i32 %..i
  ret i32 %.0.i
}